target datalayout = "e-m:e-p270:32:32-p271:32:32-p272:64:64-i64:64-i128:128-f80:128-n8:16:32:64-S128"
target triple = "x86_64-pc-linux-gnu"

%struct.SN_env = type { ptr, i32, i32, i32, i32, i32, ptr, ptr }

@g_v = internal constant [4 x i8] c"\11A\10\01", align 1
@s_8 = internal constant [1 x i8] c"i", align 1

; Function Attrs: nounwind uwtable
define internal i32 @r_Step_1c(ptr noundef %0) #0 {
  %2 = alloca i32, align 4
  %3 = alloca ptr, align 8
  %4 = alloca i32, align 4
  %5 = alloca i32, align 4
  %6 = alloca i32, align 4
  store ptr %0, ptr %3, align 8
  %7 = load ptr, ptr %3, align 8
  %8 = getelementptr inbounds nuw %struct.SN_env, ptr %7, i32 0, i32 1
  %9 = load i32, ptr %8, align 8
  %10 = load ptr, ptr %3, align 8
  %11 = getelementptr inbounds nuw %struct.SN_env, ptr %10, i32 0, i32 5
  store i32 %9, ptr %11, align 8
  call void @llvm.lifetime.start.p0(i64 4, ptr %4) #3
  %12 = load ptr, ptr %3, align 8
  %13 = getelementptr inbounds nuw %struct.SN_env, ptr %12, i32 0, i32 2
  %14 = load i32, ptr %13, align 4
  %15 = load ptr, ptr %3, align 8
  %16 = getelementptr inbounds nuw %struct.SN_env, ptr %15, i32 0, i32 1
  %17 = load i32, ptr %16, align 8
  %18 = sub i32 %14, %17
  store i32 %18, ptr %4, align 4
  %19 = load ptr, ptr %3, align 8
  %20 = getelementptr inbounds nuw %struct.SN_env, ptr %19, i32 0, i32 1
  %21 = load i32, ptr %20, align 8
  %22 = load ptr, ptr %3, align 8
  %23 = getelementptr inbounds nuw %struct.SN_env, ptr %22, i32 0, i32 3
  %24 = load i32, ptr %23, align 8
  %25 = icmp sle i32 %21, %24
  br i1 %25, label %39, label %26

26:                                               ; preds = %1
  %27 = load ptr, ptr %3, align 8
  %28 = getelementptr inbounds nuw %struct.SN_env, ptr %27, i32 0, i32 0
  %29 = load ptr, ptr %28, align 8
  %30 = load ptr, ptr %3, align 8
  %31 = getelementptr inbounds nuw %struct.SN_env, ptr %30, i32 0, i32 1
  %32 = load i32, ptr %31, align 8
  %33 = sub i32 %32, 1
  %34 = sext i32 %33 to i64
  %35 = getelementptr inbounds i8, ptr %29, i64 %34
  %36 = load i8, ptr %35, align 1
  %37 = zext i8 %36 to i32
  %38 = icmp ne i32 %37, 121
  br i1 %38, label %39, label %40

39:                                               ; preds = %26, %1
  br label %45

40:                                               ; preds = %26
  %41 = load ptr, ptr %3, align 8
  %42 = getelementptr inbounds nuw %struct.SN_env, ptr %41, i32 0, i32 1
  %43 = load i32, ptr %42, align 8
  %44 = add i32 %43, -1
  store i32 %44, ptr %42, align 8
  store i32 3, ptr %5, align 4
  br label %79

45:                                               ; preds = %39
  %46 = load ptr, ptr %3, align 8
  %47 = getelementptr inbounds nuw %struct.SN_env, ptr %46, i32 0, i32 2
  %48 = load i32, ptr %47, align 4
  %49 = load i32, ptr %4, align 4
  %50 = sub i32 %48, %49
  %51 = load ptr, ptr %3, align 8
  %52 = getelementptr inbounds nuw %struct.SN_env, ptr %51, i32 0, i32 1
  store i32 %50, ptr %52, align 8
  %53 = load ptr, ptr %3, align 8
  %54 = getelementptr inbounds nuw %struct.SN_env, ptr %53, i32 0, i32 1
  %55 = load i32, ptr %54, align 8
  %56 = load ptr, ptr %3, align 8
  %57 = getelementptr inbounds nuw %struct.SN_env, ptr %56, i32 0, i32 3
  %58 = load i32, ptr %57, align 8
  %59 = icmp sle i32 %55, %58
  br i1 %59, label %73, label %60

60:                                               ; preds = %45
  %61 = load ptr, ptr %3, align 8
  %62 = getelementptr inbounds nuw %struct.SN_env, ptr %61, i32 0, i32 0
  %63 = load ptr, ptr %62, align 8
  %64 = load ptr, ptr %3, align 8
  %65 = getelementptr inbounds nuw %struct.SN_env, ptr %64, i32 0, i32 1
  %66 = load i32, ptr %65, align 8
  %67 = sub i32 %66, 1
  %68 = sext i32 %67 to i64
  %69 = getelementptr inbounds i8, ptr %63, i64 %68
  %70 = load i8, ptr %69, align 1
  %71 = zext i8 %70 to i32
  %72 = icmp ne i32 %71, 89
  br i1 %72, label %73, label %74

73:                                               ; preds = %60, %45
  store i32 0, ptr %2, align 4
  store i32 1, ptr %5, align 4
  br label %79

74:                                               ; preds = %60
  %75 = load ptr, ptr %3, align 8
  %76 = getelementptr inbounds nuw %struct.SN_env, ptr %75, i32 0, i32 1
  %77 = load i32, ptr %76, align 8
  %78 = add i32 %77, -1
  store i32 %78, ptr %76, align 8
  store i32 0, ptr %5, align 4
  br label %79

79:                                               ; preds = %40, %74, %73
  call void @llvm.lifetime.end.p0(i64 4, ptr %4) #3
  %80 = load i32, ptr %5, align 4
  switch i32 %80, label %115 [
    i32 0, label %81
    i32 1, label %113
    i32 3, label %82
  ]

81:                                               ; preds = %79
  br label %82

82:                                               ; preds = %81, %79
  %83 = load ptr, ptr %3, align 8
  %84 = getelementptr inbounds nuw %struct.SN_env, ptr %83, i32 0, i32 1
  %85 = load i32, ptr %84, align 8
  %86 = load ptr, ptr %3, align 8
  %87 = getelementptr inbounds nuw %struct.SN_env, ptr %86, i32 0, i32 4
  store i32 %85, ptr %87, align 4
  %88 = load ptr, ptr %3, align 8
  %89 = call i32 @out_grouping_b_U(ptr noundef %88, ptr noundef @g_v, i32 noundef 97, i32 noundef 121, i32 noundef 0)
  %90 = icmp ne i32 %89, 0
  br i1 %90, label %91, label %92

91:                                               ; preds = %82
  store i32 0, ptr %2, align 4
  br label %113

92:                                               ; preds = %82
  %93 = load ptr, ptr %3, align 8
  %94 = getelementptr inbounds nuw %struct.SN_env, ptr %93, i32 0, i32 1
  %95 = load i32, ptr %94, align 8
  %96 = load ptr, ptr %3, align 8
  %97 = getelementptr inbounds nuw %struct.SN_env, ptr %96, i32 0, i32 3
  %98 = load i32, ptr %97, align 8
  %99 = icmp sgt i32 %95, %98
  br i1 %99, label %100, label %101

100:                                              ; preds = %92
  br label %102

101:                                              ; preds = %92
  store i32 0, ptr %2, align 4
  br label %113

102:                                              ; preds = %100
  call void @llvm.lifetime.start.p0(i64 4, ptr %6) #3
  %103 = load ptr, ptr %3, align 8
  %104 = call i32 @slice_from_s(ptr noundef %103, i32 noundef 1, ptr noundef @s_8)
  store i32 %104, ptr %6, align 4
  %105 = load i32, ptr %6, align 4
  %106 = icmp slt i32 %105, 0
  br i1 %106, label %107, label %109

107:                                              ; preds = %102
  %108 = load i32, ptr %6, align 4
  store i32 %108, ptr %2, align 4
  store i32 1, ptr %5, align 4
  br label %110

109:                                              ; preds = %102
  store i32 0, ptr %5, align 4
  br label %110

110:                                              ; preds = %109, %107
  call void @llvm.lifetime.end.p0(i64 4, ptr %6) #3
  %111 = load i32, ptr %5, align 4
  switch i32 %111, label %115 [
    i32 0, label %112
    i32 1, label %113
  ]

112:                                              ; preds = %110
  store i32 1, ptr %2, align 4
  br label %113

113:                                              ; preds = %112, %110, %101, %91, %79
  %114 = load i32, ptr %2, align 4
  ret i32 %114

115:                                              ; preds = %110, %79
  unreachable
}