; Function Attrs: nounwind uwtable
define internal fastcc range(i32 -2147483648, 2) i32 @r_Step_1c(ptr noundef initializes((24, 28)) %0) unnamed_addr #0 {
  %2 = getelementptr inbounds nuw i8, ptr %0, i64 8
  %3 = load i32, ptr %2, align 8
  %4 = getelementptr inbounds nuw i8, ptr %0, i64 24
  store i32 %3, ptr %4, align 8
  %5 = getelementptr inbounds nuw i8, ptr %0, i64 16
  %6 = load i32, ptr %5, align 8
  %.not = icmp sgt i32 %3, %6
  br i1 %.not, label %7, label %.thread36

7:                                                ; preds = %1
  %8 = load ptr, ptr %0, align 8
  %9 = add nsw i32 %3, -1
  %10 = sext i32 %9 to i64
  %11 = getelementptr inbounds i8, ptr %8, i64 %10
  %12 = load i8, ptr %11, align 1
  switch i8 %12, label %.thread36 [
    i8 121, label %13
    i8 89, label %13
  ]

13:                                               ; preds = %7, %7
  store i32 %9, ptr %2, align 8
  %14 = getelementptr inbounds nuw i8, ptr %0, i64 20
  store i32 %9, ptr %14, align 4
  %15 = tail call i32 @out_grouping_b_U(ptr noundef nonnull %0, ptr noundef nonnull @g_v, i32 noundef 97, i32 noundef 121, i32 noundef 0) #3
  %.not34 = icmp eq i32 %15, 0
  br i1 %.not34, label %16, label %.thread36

16:                                               ; preds = %13
  %17 = load i32, ptr %2, align 8
  %18 = load i32, ptr %5, align 8
  %19 = icmp sgt i32 %17, %18
  br i1 %19, label %20, label %.thread36

20:                                               ; preds = %16
  %21 = tail call i32 @slice_from_s(ptr noundef nonnull %0, i32 noundef 1, ptr noundef nonnull @s_8) #3
  %22 = icmp sgt i32 %21, -1
  %. = tail call i32 @llvm.smin.i32(i32 %21, i32 0)
  %spec.select = select i1 %22, i32 1, i32 %.
  br label %.thread36

.thread36:                                        ; preds = %7, %1, %20, %16, %13
  %.1 = phi i32 [ 0, %13 ], [ 0, %16 ], [ %spec.select, %20 ], [ 0, %1 ], [ 0, %7 ]
  ret i32 %.1
}